; Function Attrs: mustprogress uwtable
define hidden void @_ZN3smt22theory_user_propagator11register_cbEP4expr(ptr noundef nonnull align 8 dereferenceable(532) %0, ptr noundef %1) unnamed_addr #4 align 2 {
  %3 = getelementptr inbounds nuw i8, ptr %0, i64 464
  %4 = load i8, ptr %3, align 8, !tbaa !627, !range !546, !noundef !628
  %5 = trunc nuw i8 %4 to i1
  br i1 %5, label %6, label %27

6:                                                ; preds = %2
  %.not.i.i.i.i = icmp eq ptr %1, null
  br i1 %.not.i.i.i.i, label %_ZN15ref_vector_coreI4expr19ref_manager_wrapperIS0_11ast_managerEE7inc_refEPS0_.exit.i, label %7

7:                                                ; preds = %6
  %8 = getelementptr inbounds nuw i8, ptr %1, i64 8
  %9 = load i32, ptr %8, align 4, !tbaa !511
  %10 = add i32 %9, 1
  store i32 %10, ptr %8, align 4, !tbaa !511
  br label %_ZN15ref_vector_coreI4expr19ref_manager_wrapperIS0_11ast_managerEE7inc_refEPS0_.exit.i

_ZN15ref_vector_coreI4expr19ref_manager_wrapperIS0_11ast_managerEE7inc_refEPS0_.exit.i: ; preds = %7, %6
  %11 = getelementptr inbounds nuw i8, ptr %0, i64 480
  %12 = load ptr, ptr %11, align 8, !tbaa !507
  %13 = icmp eq ptr %12, null
  br i1 %13, label %20, label %14

14:                                               ; preds = %_ZN15ref_vector_coreI4expr19ref_manager_wrapperIS0_11ast_managerEE7inc_refEPS0_.exit.i
  %15 = getelementptr inbounds i8, ptr %12, i64 -4
  %16 = load i32, ptr %15, align 4, !tbaa !508
  %17 = getelementptr inbounds i8, ptr %12, i64 -8
  %18 = load i32, ptr %17, align 4, !tbaa !508
  %19 = icmp eq i32 %16, %18
  br i1 %19, label %20, label %_ZN15ref_vector_coreI4expr19ref_manager_wrapperIS0_11ast_managerEE9push_backEPS0_.exit

20:                                               ; preds = %14, %_ZN15ref_vector_coreI4expr19ref_manager_wrapperIS0_11ast_managerEE7inc_refEPS0_.exit.i
  tail call void @_ZN6vectorIP4exprLb0EjE13expand_vectorEv(ptr noundef nonnull align 8 dereferenceable(8) %11)
  %.pre.i.i = load ptr, ptr %11, align 8, !tbaa !507
  %.phi.trans.insert.i.i = getelementptr inbounds i8, ptr %.pre.i.i, i64 -4
  %.pre2.i.i = load i32, ptr %.phi.trans.insert.i.i, align 4, !tbaa !508
  br label %_ZN15ref_vector_coreI4expr19ref_manager_wrapperIS0_11ast_managerEE9push_backEPS0_.exit

_ZN15ref_vector_coreI4expr19ref_manager_wrapperIS0_11ast_managerEE9push_backEPS0_.exit: ; preds = %14, %20
  %21 = phi i32 [ %.pre2.i.i, %20 ], [ %16, %14 ]
  %22 = phi ptr [ %.pre.i.i, %20 ], [ %12, %14 ]
  %23 = getelementptr inbounds i8, ptr %22, i64 -4
  %24 = zext i32 %21 to i64
  %25 = getelementptr inbounds nuw ptr, ptr %22, i64 %24
  store ptr %1, ptr %25, align 8, !tbaa !509
  %26 = add i32 %21, 1
  store i32 %26, ptr %23, align 4, !tbaa !508
  br label %28

27:                                               ; preds = %2
  tail call void @_ZN3smt22theory_user_propagator8add_exprEP4exprb(ptr noundef nonnull align 8 dereferenceable(532) %0, ptr noundef %1, i1 noundef zeroext true)
  br label %28

28:                                               ; preds = %27, %_ZN15ref_vector_coreI4expr19ref_manager_wrapperIS0_11ast_managerEE9push_backEPS0_.exit
  ret void
}